; Function Attrs: mustprogress nounwind uwtable
define dso_local noundef nonnull align 8 dereferenceable(48) ptr @_ZN4llvmlsERNS_11raw_ostreamERKNS_7MCFixupE(ptr noundef nonnull returned align 8 dereferenceable(48) %0, ptr noundef nonnull readonly align 8 captures(none) dereferenceable(24) %1) local_unnamed_addr #1 {
  %3 = getelementptr inbounds nuw i8, ptr %0, i64 24
  %4 = load ptr, ptr %3, align 8
  %5 = getelementptr inbounds nuw i8, ptr %0, i64 32
  %6 = load ptr, ptr %5, align 8
  %7 = ptrtoint ptr %4 to i64
  %8 = ptrtoint ptr %6 to i64
  %9 = sub i64 %7, %8
  %10 = icmp ult i64 %9, 8
  br i1 %10, label %11, label %13

11:                                               ; preds = %2
  %12 = tail call noundef nonnull align 8 dereferenceable(48) ptr @_ZN4llvm11raw_ostream5writeEPKcm(ptr noundef nonnull align 8 dereferenceable(48) %0, ptr noundef nonnull @.str, i64 noundef 8) #6
  %.phi.trans.insert = getelementptr inbounds nuw i8, ptr %12, i64 32
  %.pre = load ptr, ptr %.phi.trans.insert, align 8
  br label %_ZN4llvm11raw_ostreamlsEPKc.exit

13:                                               ; preds = %2
  store i64 8103515498068790588, ptr %6, align 1
  %14 = load ptr, ptr %5, align 8
  %15 = getelementptr inbounds nuw i8, ptr %14, i64 8
  store ptr %15, ptr %5, align 8
  br label %_ZN4llvm11raw_ostreamlsEPKc.exit

_ZN4llvm11raw_ostreamlsEPKc.exit:                 ; preds = %11, %13
  %16 = phi ptr [ %.pre, %11 ], [ %15, %13 ]
  %.0.i.i = phi ptr [ %12, %11 ], [ %0, %13 ]
  %17 = getelementptr inbounds nuw i8, ptr %.0.i.i, i64 24
  %18 = load ptr, ptr %17, align 8
  %19 = ptrtoint ptr %18 to i64
  %20 = ptrtoint ptr %16 to i64
  %21 = sub i64 %19, %20
  %22 = icmp ult i64 %21, 8
  br i1 %22, label %23, label %25

23:                                               ; preds = %_ZN4llvm11raw_ostreamlsEPKc.exit
  %24 = tail call noundef nonnull align 8 dereferenceable(48) ptr @_ZN4llvm11raw_ostream5writeEPKcm(ptr noundef nonnull align 8 dereferenceable(48) %.0.i.i, ptr noundef nonnull @.str.1, i64 noundef 8) #6
  br label %_ZN4llvm11raw_ostreamlsEPKc.exit7

25:                                               ; preds = %_ZN4llvm11raw_ostreamlsEPKc.exit
  %26 = getelementptr inbounds nuw i8, ptr %.0.i.i, i64 32
  store i64 4212103097811881760, ptr %16, align 1
  %27 = load ptr, ptr %26, align 8
  %28 = getelementptr inbounds nuw i8, ptr %27, i64 8
  store ptr %28, ptr %26, align 8
  br label %_ZN4llvm11raw_ostreamlsEPKc.exit7

_ZN4llvm11raw_ostreamlsEPKc.exit7:                ; preds = %23, %25
  %.0.i.i6 = phi ptr [ %24, %23 ], [ %.0.i.i, %25 ]
  %29 = getelementptr inbounds nuw i8, ptr %1, i64 8
  %30 = load i32, ptr %29, align 8
  %31 = zext i32 %30 to i64
  %32 = tail call noundef nonnull align 8 dereferenceable(48) ptr @_ZN4llvm11raw_ostreamlsEm(ptr noundef nonnull align 8 dereferenceable(48) %.0.i.i6, i64 noundef %31) #6
  %33 = getelementptr inbounds nuw i8, ptr %32, i64 24
  %34 = load ptr, ptr %33, align 8
  %35 = getelementptr inbounds nuw i8, ptr %32, i64 32
  %36 = load ptr, ptr %35, align 8
  %37 = ptrtoint ptr %34 to i64
  %38 = ptrtoint ptr %36 to i64
  %39 = sub i64 %37, %38
  %40 = icmp ult i64 %39, 7
  br i1 %40, label %41, label %43

41:                                               ; preds = %_ZN4llvm11raw_ostreamlsEPKc.exit7
  %42 = tail call noundef nonnull align 8 dereferenceable(48) ptr @_ZN4llvm11raw_ostream5writeEPKcm(ptr noundef nonnull align 8 dereferenceable(48) %32, ptr noundef nonnull @.str.2, i64 noundef 7) #6
  br label %_ZN4llvm11raw_ostreamlsEPKc.exit10

43:                                               ; preds = %_ZN4llvm11raw_ostreamlsEPKc.exit7
  tail call void @llvm.memcpy.p0.p0.i64(ptr noundef nonnull align 1 dereferenceable(7) %36, ptr noundef nonnull align 1 dereferenceable(7) @.str.2, i64 7, i1 false)
  %44 = load ptr, ptr %35, align 8
  %45 = getelementptr inbounds nuw i8, ptr %44, i64 7
  store ptr %45, ptr %35, align 8
  br label %_ZN4llvm11raw_ostreamlsEPKc.exit10

_ZN4llvm11raw_ostreamlsEPKc.exit10:               ; preds = %41, %43
  %.0.i.i9 = phi ptr [ %42, %41 ], [ %32, %43 ]
  %46 = load ptr, ptr %1, align 8
  tail call void @_ZNK4llvm6MCExpr5printERNS_11raw_ostreamEPKNS_9MCAsmInfoEb(ptr noundef nonnull align 8 dereferenceable(16) %46, ptr noundef nonnull align 8 dereferenceable(48) %.0.i.i9, ptr noundef null, i1 noundef zeroext false) #6
  %47 = getelementptr inbounds nuw i8, ptr %.0.i.i9, i64 24
  %48 = load ptr, ptr %47, align 8
  %49 = getelementptr inbounds nuw i8, ptr %.0.i.i9, i64 32
  %50 = load ptr, ptr %49, align 8
  %51 = ptrtoint ptr %48 to i64
  %52 = ptrtoint ptr %50 to i64
  %53 = sub i64 %51, %52
  %54 = icmp ult i64 %53, 6
  br i1 %54, label %55, label %57

55:                                               ; preds = %_ZN4llvm11raw_ostreamlsEPKc.exit10
  %56 = tail call noundef nonnull align 8 dereferenceable(48) ptr @_ZN4llvm11raw_ostream5writeEPKcm(ptr noundef nonnull align 8 dereferenceable(48) %.0.i.i9, ptr noundef nonnull @.str.3, i64 noundef 6) #6
  br label %_ZN4llvm11raw_ostreamlsEPKc.exit13

57:                                               ; preds = %_ZN4llvm11raw_ostreamlsEPKc.exit10
  tail call void @llvm.memcpy.p0.p0.i64(ptr noundef nonnull align 1 dereferenceable(6) %50, ptr noundef nonnull align 1 dereferenceable(6) @.str.3, i64 6, i1 false)
  %58 = load ptr, ptr %49, align 8
  %59 = getelementptr inbounds nuw i8, ptr %58, i64 6
  store ptr %59, ptr %49, align 8
  br label %_ZN4llvm11raw_ostreamlsEPKc.exit13

_ZN4llvm11raw_ostreamlsEPKc.exit13:               ; preds = %55, %57
  %.0.i.i12 = phi ptr [ %56, %55 ], [ %.0.i.i9, %57 ]
  %60 = getelementptr inbounds nuw i8, ptr %1, i64 12
  %61 = load i32, ptr %60, align 4
  %62 = sext i32 %61 to i64
  %63 = tail call noundef nonnull align 8 dereferenceable(48) ptr @_ZN4llvm11raw_ostreamlsEl(ptr noundef nonnull align 8 dereferenceable(48) %.0.i.i12, i64 noundef %62) #6
  %64 = getelementptr inbounds nuw i8, ptr %63, i64 24
  %65 = load ptr, ptr %64, align 8
  %66 = getelementptr inbounds nuw i8, ptr %63, i64 32
  %67 = load ptr, ptr %66, align 8
  %68 = icmp eq ptr %65, %67
  br i1 %68, label %69, label %71

69:                                               ; preds = %_ZN4llvm11raw_ostreamlsEPKc.exit13
  %70 = tail call noundef nonnull align 8 dereferenceable(48) ptr @_ZN4llvm11raw_ostream5writeEPKcm(ptr noundef nonnull align 8 dereferenceable(48) %63, ptr noundef nonnull @.str.4, i64 noundef 1) #6
  br label %_ZN4llvm11raw_ostreamlsEPKc.exit16

71:                                               ; preds = %_ZN4llvm11raw_ostreamlsEPKc.exit13
  store i8 62, ptr %67, align 1
  %72 = load ptr, ptr %66, align 8
  %73 = getelementptr inbounds nuw i8, ptr %72, i64 1
  store ptr %73, ptr %66, align 8
  br label %_ZN4llvm11raw_ostreamlsEPKc.exit16

_ZN4llvm11raw_ostreamlsEPKc.exit16:               ; preds = %69, %71
  ret ptr %0
}